target datalayout = "e-m:e-p270:32:32-p271:32:32-p272:64:64-i64:64-i128:128-f80:128-n8:16:32:64-S128"
target triple = "x86_64-pc-linux-gnu"

@H5C_init_g = external global i8, align 1
@H5_libterm_g = external global i8, align 1
@.str.1 = private unnamed_addr constant [102 x i8] c"generated/home/dtcxzyw/WorkSpace/Projects/compilers/llvm-opt-benchmark/bench/hdf5/hdf5/src/H5Cepoch.c\00", align 1
@H5E_CACHE_g = external global i64, align 8
@H5E_SYSTEM_g = external global i64, align 8
@.str.2 = private unnamed_addr constant [24 x i8] c"called unreachable fcn.\00", align 1
@__func__.H5C__epoch_marker_image_len = private unnamed_addr constant [28 x i8] c"H5C__epoch_marker_image_len\00", align 1

; Function Attrs: nounwind uwtable
define internal i32 @H5C__epoch_marker_image_len(ptr noundef %0, ptr noundef %1) #0 {
  %3 = alloca ptr, align 8
  %4 = alloca ptr, align 8
  store ptr %0, ptr %3, align 8, !tbaa !3
  store ptr %1, ptr %4, align 8, !tbaa !7
  %5 = load i8, ptr @H5C_init_g, align 1, !tbaa !9, !range !11, !noundef !12
  %6 = trunc i8 %5 to i1
  br i1 %6, label %11, label %7

7:                                                ; preds = %2
  %8 = load i8, ptr @H5_libterm_g, align 1, !tbaa !9, !range !11, !noundef !12
  %9 = trunc i8 %8 to i1
  %10 = xor i1 %9, true
  br label %11

11:                                               ; preds = %7, %2
  %12 = phi i1 [ true, %2 ], [ %10, %7 ]
  %13 = xor i1 %12, true
  %14 = xor i1 %13, true
  %15 = zext i1 %14 to i32
  %16 = sext i32 %15 to i64
  %17 = call i64 @llvm.expect.i64(i64 %16, i64 1)
  %18 = icmp ne i64 %17, 0
  br i1 %18, label %19, label %25

19:                                               ; preds = %11
  br label %20

20:                                               ; preds = %19
  %21 = load i64, ptr @H5E_CACHE_g, align 8, !tbaa !13
  %22 = load i64, ptr @H5E_SYSTEM_g, align 8, !tbaa !13
  %23 = call i32 (ptr, ptr, i32, i64, i64, ptr, ...) @H5E_printf_stack(ptr noundef @.str.1, ptr noundef @__func__.H5C__epoch_marker_image_len, i32 noundef 158, i64 noundef %21, i64 noundef %22, ptr noundef @.str.2)
  br label %24

24:                                               ; preds = %20
  br label %25

25:                                               ; preds = %24, %11
  ret i32 -1
}