; Function Attrs: nounwind uwtable
define internal noundef i32 @H5C__epoch_marker_image_len(ptr readnone captures(none) %0, ptr readnone captures(none) %1) #0 {
  %3 = load i8, ptr @H5C_init_g, align 1, !tbaa !3, !range !7, !noundef !8
  %4 = trunc nuw i8 %3 to i1
  %5 = load i8, ptr @H5_libterm_g, align 1, !range !7
  %6 = trunc nuw i8 %5 to i1
  %7 = xor i1 %6, true
  %8 = select i1 %4, i1 true, i1 %7
  br i1 %8, label %9, label %13, !prof !9

9:                                                ; preds = %2
  %10 = load i64, ptr @H5E_CACHE_g, align 8, !tbaa !10
  %11 = load i64, ptr @H5E_SYSTEM_g, align 8, !tbaa !10
  %12 = tail call i32 (ptr, ptr, i32, i64, i64, ptr, ...) @H5E_printf_stack(ptr noundef nonnull @.str.1, ptr noundef nonnull @__func__.H5C__epoch_marker_image_len, i32 noundef 158, i64 noundef %10, i64 noundef %11, ptr noundef nonnull @.str.2) #2
  br label %13

13:                                               ; preds = %9, %2
  ret i32 -1
}